target datalayout = "e-m:e-p270:32:32-p271:32:32-p272:64:64-i64:64-i128:128-f80:128-n8:16:32:64-S128"
target triple = "x86_64-pc-linux-gnu"

%struct.H5G_node_t = type { %struct.H5C_cache_entry_t, i64, i32, ptr }
%struct.H5C_cache_entry_t = type { ptr, i64, i64, ptr, i8, ptr, i8, i8, i8, i8, i32, i8, i8, i8, i8, i8, i32, ptr, i32, i32, i32, i32, i32, i8, i8, ptr, ptr, ptr, ptr, ptr, ptr, i8, i32, i8, i64, ptr, i64, i64, i32, i8, i32, i32, i8, ptr, ptr, ptr }

@H5G_init_g = external global i8, align 1
@H5_libterm_g = external global i8, align 1
@.str.1 = private unnamed_addr constant [102 x i8] c"generated/home/dtcxzyw/WorkSpace/Projects/compilers/llvm-opt-benchmark/bench/hdf5/hdf5/src/H5Gcache.c\00", align 1
@H5E_SYM_g = external global i64, align 8
@.str.4 = private unnamed_addr constant [5 x i8] c"SNOD\00", align 1
@__func__.H5G__cache_node_serialize = private unnamed_addr constant [26 x i8] c"H5G__cache_node_serialize\00", align 1
@H5E_CANTENCODE_g = external global i64, align 8
@.str.9 = private unnamed_addr constant [16 x i8] c"can't serialize\00", align 1

; Function Attrs: nounwind uwtable
define internal i32 @H5G__cache_node_serialize(ptr noundef %0, ptr noundef %1, i64 noundef %2, ptr noundef %3) #0 {
  %5 = alloca ptr, align 8
  %6 = alloca ptr, align 8
  %7 = alloca i64, align 8
  %8 = alloca ptr, align 8
  %9 = alloca ptr, align 8
  %10 = alloca ptr, align 8
  %11 = alloca i32, align 4
  %12 = alloca i8, align 1
  store ptr %0, ptr %5, align 8, !tbaa !9
  store ptr %1, ptr %6, align 8, !tbaa !3
  store i64 %2, ptr %7, align 8, !tbaa !15
  store ptr %3, ptr %8, align 8, !tbaa !3
  call void @llvm.lifetime.start.p0(i64 8, ptr %9) #7
  %13 = load ptr, ptr %8, align 8, !tbaa !3
  store ptr %13, ptr %9, align 8, !tbaa !19
  call void @llvm.lifetime.start.p0(i64 8, ptr %10) #7
  %14 = load ptr, ptr %6, align 8, !tbaa !3
  store ptr %14, ptr %10, align 8, !tbaa !21
  call void @llvm.lifetime.start.p0(i64 4, ptr %11) #7
  store i32 0, ptr %11, align 4, !tbaa !36
  call void @llvm.lifetime.start.p0(i64 1, ptr %12) #7
  store i8 0, ptr %12, align 1, !tbaa !11
  %15 = load i8, ptr @H5G_init_g, align 1, !tbaa !11, !range !13, !noundef !14
  %16 = trunc i8 %15 to i1
  br i1 %16, label %21, label %17

17:                                               ; preds = %4
  %18 = load i8, ptr @H5_libterm_g, align 1, !tbaa !11, !range !13, !noundef !14
  %19 = trunc i8 %18 to i1
  %20 = xor i1 %19, true
  br label %21

21:                                               ; preds = %17, %4
  %22 = phi i1 [ true, %4 ], [ %20, %17 ]
  %23 = xor i1 %22, true
  %24 = xor i1 %23, true
  %25 = zext i1 %24 to i32
  %26 = sext i32 %25 to i64
  %27 = call i64 @llvm.expect.i64(i64 %26, i64 1)
  %28 = icmp ne i64 %27, 0
  br i1 %28, label %29, label %95

29:                                               ; preds = %21
  %30 = load ptr, ptr %10, align 8, !tbaa !21
  call void @llvm.memcpy.p0.p0.i64(ptr align 1 %30, ptr align 1 @.str.4, i64 4, i1 false)
  %31 = load ptr, ptr %10, align 8, !tbaa !21
  %32 = getelementptr inbounds i8, ptr %31, i64 4
  store ptr %32, ptr %10, align 8, !tbaa !21
  %33 = load ptr, ptr %10, align 8, !tbaa !21
  %34 = getelementptr inbounds nuw i8, ptr %33, i32 1
  store ptr %34, ptr %10, align 8, !tbaa !21
  store i8 1, ptr %33, align 1, !tbaa !34
  %35 = load ptr, ptr %10, align 8, !tbaa !21
  %36 = getelementptr inbounds nuw i8, ptr %35, i32 1
  store ptr %36, ptr %10, align 8, !tbaa !21
  store i8 0, ptr %35, align 1, !tbaa !34
  br label %37

37:                                               ; preds = %29
  %38 = load ptr, ptr %9, align 8, !tbaa !19
  %39 = getelementptr inbounds nuw %struct.H5G_node_t, ptr %38, i32 0, i32 2
  %40 = load i32, ptr %39, align 8, !tbaa !35
  %41 = and i32 %40, 255
  %42 = trunc i32 %41 to i8
  %43 = load ptr, ptr %10, align 8, !tbaa !21
  store i8 %42, ptr %43, align 1, !tbaa !34
  %44 = load ptr, ptr %10, align 8, !tbaa !21
  %45 = getelementptr inbounds nuw i8, ptr %44, i32 1
  store ptr %45, ptr %10, align 8, !tbaa !21
  %46 = load ptr, ptr %9, align 8, !tbaa !19
  %47 = getelementptr inbounds nuw %struct.H5G_node_t, ptr %46, i32 0, i32 2
  %48 = load i32, ptr %47, align 8, !tbaa !35
  %49 = lshr i32 %48, 8
  %50 = and i32 %49, 255
  %51 = trunc i32 %50 to i8
  %52 = load ptr, ptr %10, align 8, !tbaa !21
  store i8 %51, ptr %52, align 1, !tbaa !34
  %53 = load ptr, ptr %10, align 8, !tbaa !21
  %54 = getelementptr inbounds nuw i8, ptr %53, i32 1
  store ptr %54, ptr %10, align 8, !tbaa !21
  br label %55

55:                                               ; preds = %37
  br label %56

56:                                               ; preds = %55
  %57 = load ptr, ptr %5, align 8, !tbaa !9
  %58 = load ptr, ptr %9, align 8, !tbaa !19
  %59 = getelementptr inbounds nuw %struct.H5G_node_t, ptr %58, i32 0, i32 3
  %60 = load ptr, ptr %59, align 8, !tbaa !33
  %61 = load ptr, ptr %9, align 8, !tbaa !19
  %62 = getelementptr inbounds nuw %struct.H5G_node_t, ptr %61, i32 0, i32 2
  %63 = load i32, ptr %62, align 8, !tbaa !35
  %64 = call i32 @H5G__ent_encode_vec(ptr noundef %57, ptr noundef %10, ptr noundef %60, i32 noundef %63)
  %65 = icmp slt i32 %64, 0
  br i1 %65, label %66, label %85

66:                                               ; preds = %56
  br label %67

67:                                               ; preds = %66
  br label %68

68:                                               ; preds = %67
  br label %69

69:                                               ; preds = %68
  %70 = load i64, ptr @H5E_SYM_g, align 8, !tbaa !15
  %71 = load i64, ptr @H5E_CANTENCODE_g, align 8, !tbaa !15
  %72 = call i32 (ptr, ptr, i32, i64, i64, ptr, ...) @H5E_printf_stack(ptr noundef @.str.1, ptr noundef @__func__.H5G__cache_node_serialize, i32 noundef 267, i64 noundef %70, i64 noundef %71, ptr noundef @.str.9)
  br label %73

73:                                               ; preds = %69
  br label %74

74:                                               ; preds = %73
  store i8 1, ptr %12, align 1, !tbaa !11
  %75 = load i8, ptr %12, align 1, !tbaa !11, !range !13, !noundef !14
  %76 = trunc i8 %75 to i1
  %77 = zext i1 %76 to i8
  store i8 %77, ptr %12, align 1, !tbaa !11
  br label %78

78:                                               ; preds = %74
  br label %79

79:                                               ; preds = %78
  br label %80

80:                                               ; preds = %79
  store i32 -1, ptr %11, align 4, !tbaa !36
  br label %94

81:                                               ; No predecessors!
  br label %82

82:                                               ; preds = %81
  br label %83

83:                                               ; preds = %82
  br label %84

84:                                               ; preds = %83
  br label %85

85:                                               ; preds = %84, %56
  %86 = load ptr, ptr %10, align 8, !tbaa !21
  %87 = load i64, ptr %7, align 8, !tbaa !15
  %88 = load ptr, ptr %10, align 8, !tbaa !21
  %89 = load ptr, ptr %6, align 8, !tbaa !3
  %90 = ptrtoint ptr %88 to i64
  %91 = ptrtoint ptr %89 to i64
  %92 = sub i64 %90, %91
  %93 = sub i64 %87, %92
  call void @llvm.memset.p0.i64(ptr align 1 %86, i8 0, i64 %93, i1 false)
  br label %94

94:                                               ; preds = %85, %80
  br label %95

95:                                               ; preds = %94, %21
  %96 = load i32, ptr %11, align 4, !tbaa !36
  call void @llvm.lifetime.end.p0(i64 1, ptr %12) #7
  call void @llvm.lifetime.end.p0(i64 4, ptr %11) #7
  call void @llvm.lifetime.end.p0(i64 8, ptr %10) #7
  call void @llvm.lifetime.end.p0(i64 8, ptr %9) #7
  ret i32 %96
}