; Function Attrs: nounwind uwtable
define internal range(i32 -1, 1) i32 @H5G__cache_node_serialize(ptr noundef %0, ptr noundef %1, i64 noundef %2, ptr noundef readonly captures(none) %3) #0 {
  %5 = alloca ptr, align 8
  call void @llvm.lifetime.start.p0(i64 8, ptr nonnull %5) #6
  %6 = load i8, ptr @H5G_init_g, align 1, !tbaa !3, !range !7, !noundef !8
  %7 = trunc nuw i8 %6 to i1
  %8 = load i8, ptr @H5_libterm_g, align 1, !range !7
  %9 = trunc nuw i8 %8 to i1
  %10 = xor i1 %9, true
  %11 = select i1 %7, i1 true, i1 %10
  br i1 %11, label %12, label %38, !prof !9

12:                                               ; preds = %4
  store i32 1146048083, ptr %1, align 1
  %13 = getelementptr inbounds nuw i8, ptr %1, i64 4
  %14 = getelementptr inbounds nuw i8, ptr %1, i64 5
  store i8 1, ptr %13, align 1, !tbaa !27
  %15 = getelementptr inbounds nuw i8, ptr %1, i64 6
  store i8 0, ptr %14, align 1, !tbaa !27
  %16 = getelementptr inbounds nuw i8, ptr %3, i64 256
  %17 = load i32, ptr %16, align 8, !tbaa !28
  %18 = trunc i32 %17 to i8
  store i8 %18, ptr %15, align 1, !tbaa !27
  %19 = getelementptr inbounds nuw i8, ptr %1, i64 7
  %20 = load i32, ptr %16, align 8, !tbaa !28
  %21 = lshr i32 %20, 8
  %22 = trunc i32 %21 to i8
  store i8 %22, ptr %19, align 1, !tbaa !27
  %23 = getelementptr inbounds nuw i8, ptr %1, i64 8
  store ptr %23, ptr %5, align 8, !tbaa !12
  %24 = getelementptr inbounds nuw i8, ptr %3, i64 264
  %25 = load ptr, ptr %24, align 8, !tbaa !26
  %26 = load i32, ptr %16, align 8, !tbaa !28
  %27 = call i32 @H5G__ent_encode_vec(ptr noundef %0, ptr noundef nonnull %5, ptr noundef %25, i32 noundef %26) #6
  %28 = icmp slt i32 %27, 0
  br i1 %28, label %29, label %33

29:                                               ; preds = %12
  %30 = load i64, ptr @H5E_SYM_g, align 8, !tbaa !10
  %31 = load i64, ptr @H5E_CANTENCODE_g, align 8, !tbaa !10
  %32 = call i32 (ptr, ptr, i32, i64, i64, ptr, ...) @H5E_printf_stack(ptr noundef nonnull @.str.1, ptr noundef nonnull @__func__.H5G__cache_node_serialize, i32 noundef 267, i64 noundef %30, i64 noundef %31, ptr noundef nonnull @.str.9) #6
  br label %38

33:                                               ; preds = %12
  %34 = load ptr, ptr %5, align 8, !tbaa !12
  %35 = ptrtoint ptr %34 to i64
  %36 = ptrtoint ptr %1 to i64
  %.neg = add i64 %2, %36
  %37 = sub i64 %.neg, %35
  call void @llvm.memset.p0.i64(ptr align 1 %34, i8 0, i64 %37, i1 false)
  br label %38

38:                                               ; preds = %29, %33, %4
  %.0 = phi i32 [ -1, %29 ], [ 0, %33 ], [ 0, %4 ]
  call void @llvm.lifetime.end.p0(i64 8, ptr nonnull %5) #6
  ret i32 %.0
}